target datalayout = "e-m:e-p270:32:32-p271:32:32-p272:64:64-i64:64-i128:128-f80:128-n8:16:32:64-S128"
target triple = "x86_64-pc-linux-gnu"

%"class.icu_77::Locale" = type <{ %"class.icu_77::UObject", [12 x i8], [6 x i8], [4 x i8], [2 x i8], i32, [4 x i8], ptr, [157 x i8], [3 x i8], ptr, i8, [7 x i8] }>
%"class.icu_77::UObject" = type { ptr }
%class.anon = type { ptr }
%"class.icu_77::CheckedArrayByteSink" = type <{ %"class.icu_77::ByteSink", ptr, i32, i32, i32, i8, [3 x i8] }>
%"class.icu_77::ByteSink" = type { ptr }

; Function Attrs: mustprogress nounwind uwtable
define linkonce_odr noundef signext i8 @_ZNK6icu_7720CheckedArrayByteSink10OverflowedEv(ptr noundef nonnull align 8 dereferenceable(29) %0) #0 comdat align 2 {
  %2 = alloca ptr, align 8
  store ptr %0, ptr %2, align 8, !tbaa !44
  %3 = load ptr, ptr %2, align 8
  %4 = getelementptr inbounds nuw %"class.icu_77::CheckedArrayByteSink", ptr %3, i32 0, i32 5
  %5 = load i8, ptr %4, align 4, !tbaa !49
  ret i8 %5
}

; Function Attrs: mustprogress nounwind uwtable
define linkonce_odr noundef i32 @_ZNK6icu_7720CheckedArrayByteSink21NumberOfBytesAppendedEv(ptr noundef nonnull align 8 dereferenceable(29) %0) #0 comdat align 2 {
  %2 = alloca ptr, align 8
  store ptr %0, ptr %2, align 8, !tbaa !44
  %3 = load ptr, ptr %2, align 8
  %4 = getelementptr inbounds nuw %"class.icu_77::CheckedArrayByteSink", ptr %3, i32 0, i32 4
  %5 = load i32, ptr %4, align 8, !tbaa !46
  ret i32 %5
}

; Function Attrs: inlinehint mustprogress uwtable
define internal void @"_ZZ27ulocbld_buildLanguageTag_77ENK3$_0clERN6icu_778ByteSinkER10UErrorCode"(ptr noundef nonnull align 8 dereferenceable(8) %0, ptr noundef nonnull align 8 dereferenceable(8) %1, ptr noundef nonnull align 4 dereferenceable(4) %2) #3 align 2 {
  %4 = alloca ptr, align 8
  %5 = alloca ptr, align 8
  %6 = alloca ptr, align 8
  store ptr %0, ptr %4, align 8, !tbaa !22
  store ptr %1, ptr %5, align 8, !tbaa !40
  store ptr %2, ptr %6, align 8, !tbaa !22
  %7 = load ptr, ptr %4, align 8
  %8 = getelementptr inbounds nuw %class.anon, ptr %7, i32 0, i32 0
  %9 = load ptr, ptr %8, align 8, !tbaa !42
  %10 = load ptr, ptr %5, align 8, !tbaa !40
  %11 = load ptr, ptr %6, align 8, !tbaa !22
  call void @_ZNK6icu_776Locale13toLanguageTagERNS_8ByteSinkER10UErrorCode(ptr noundef nonnull align 8 dereferenceable(217) %9, ptr noundef nonnull align 8 dereferenceable(8) %10, ptr noundef nonnull align 4 dereferenceable(4) %11)
  ret void
}

; Function Attrs: mustprogress uwtable
define internal noundef i32 @"_ZN6icu_7712ByteSinkUtil28viaByteSinkToTerminatedCharsIZ27ulocbld_buildLanguageTag_77E3$_0vEEiPciOT_R10UErrorCode"(ptr noundef %0, i32 noundef %1, ptr noundef nonnull align 8 dereferenceable(8) %2, ptr noundef nonnull align 4 dereferenceable(4) %3) #1 align 2 personality ptr @__gxx_personality_v0 {
  %5 = alloca i32, align 4
  %6 = alloca ptr, align 8
  %7 = alloca i32, align 4
  %8 = alloca ptr, align 8
  %9 = alloca ptr, align 8
  %10 = alloca %"class.icu_77::CheckedArrayByteSink", align 8
  %11 = alloca ptr, align 8
  %12 = alloca i32, align 4
  %13 = alloca i32, align 4
  %14 = alloca i32, align 4
  store ptr %0, ptr %6, align 8, !tbaa !17
  store i32 %1, ptr %7, align 4, !tbaa !14
  store ptr %2, ptr %8, align 8, !tbaa !22
  store ptr %3, ptr %9, align 8, !tbaa !22
  %15 = load ptr, ptr %9, align 8, !tbaa !22
  %16 = load i32, ptr %15, align 4, !tbaa !15
  %17 = call noundef signext i8 @_ZL9U_FAILURE10UErrorCode(i32 noundef %16)
  %18 = icmp ne i8 %17, 0
  br i1 %18, label %19, label %20

19:                                               ; preds = %4
  store i32 0, ptr %5, align 4
  br label %58

20:                                               ; preds = %4
  call void @llvm.lifetime.start.p0(i64 32, ptr %10) #11
  %21 = load ptr, ptr %6, align 8, !tbaa !17
  %22 = load i32, ptr %7, align 4, !tbaa !14
  call void @_ZN6icu_7720CheckedArrayByteSinkC1EPci(ptr noundef nonnull align 8 dereferenceable(29) %10, ptr noundef %21, i32 noundef %22)
  %23 = load ptr, ptr %8, align 8, !tbaa !22
  %24 = load ptr, ptr %9, align 8, !tbaa !22
  invoke void @"_ZZ27ulocbld_buildLanguageTag_77ENK3$_0clERN6icu_778ByteSinkER10UErrorCode"(ptr noundef nonnull align 8 dereferenceable(8) %23, ptr noundef nonnull align 8 dereferenceable(8) %10, ptr noundef nonnull align 4 dereferenceable(4) %24)
          to label %25 unwind label %31

25:                                               ; preds = %20
  %26 = load ptr, ptr %9, align 8, !tbaa !22
  %27 = load i32, ptr %26, align 4, !tbaa !15
  %28 = call noundef signext i8 @_ZL9U_FAILURE10UErrorCode(i32 noundef %27)
  %29 = icmp ne i8 %28, 0
  br i1 %29, label %30, label %35

30:                                               ; preds = %25
  store i32 0, ptr %5, align 4
  store i32 1, ptr %13, align 4
  br label %56

31:                                               ; preds = %20
  %32 = landingpad { ptr, i32 }
          cleanup
  %33 = extractvalue { ptr, i32 } %32, 0
  store ptr %33, ptr %11, align 8
  %34 = extractvalue { ptr, i32 } %32, 1
  store i32 %34, ptr %12, align 4
  br label %57

35:                                               ; preds = %25
  call void @llvm.lifetime.start.p0(i64 4, ptr %14) #11
  %36 = invoke noundef i32 @_ZNK6icu_7720CheckedArrayByteSink21NumberOfBytesAppendedEv(ptr noundef nonnull align 8 dereferenceable(29) %10)
          to label %37 unwind label %44

37:                                               ; preds = %35
  store i32 %36, ptr %14, align 4, !tbaa !14
  %38 = invoke noundef signext i8 @_ZNK6icu_7720CheckedArrayByteSink10OverflowedEv(ptr noundef nonnull align 8 dereferenceable(29) %10)
          to label %39 unwind label %44

39:                                               ; preds = %37
  %40 = icmp ne i8 %38, 0
  br i1 %40, label %41, label %48

41:                                               ; preds = %39
  %42 = load ptr, ptr %9, align 8, !tbaa !22
  store i32 15, ptr %42, align 4, !tbaa !15
  %43 = load i32, ptr %14, align 4, !tbaa !14
  store i32 %43, ptr %5, align 4
  store i32 1, ptr %13, align 4
  br label %55

44:                                               ; preds = %48, %37, %35
  %45 = landingpad { ptr, i32 }
          cleanup
  %46 = extractvalue { ptr, i32 } %45, 0
  store ptr %46, ptr %11, align 8
  %47 = extractvalue { ptr, i32 } %45, 1
  store i32 %47, ptr %12, align 4
  call void @llvm.lifetime.end.p0(i64 4, ptr %14) #11
  br label %57

48:                                               ; preds = %39
  %49 = load ptr, ptr %6, align 8, !tbaa !17
  %50 = load i32, ptr %7, align 4, !tbaa !14
  %51 = load i32, ptr %14, align 4, !tbaa !14
  %52 = load ptr, ptr %9, align 8, !tbaa !22
  %53 = invoke i32 @u_terminateChars_77(ptr noundef %49, i32 noundef %50, i32 noundef %51, ptr noundef %52)
          to label %54 unwind label %44

54:                                               ; preds = %48
  store i32 %53, ptr %5, align 4
  store i32 1, ptr %13, align 4
  br label %55

55:                                               ; preds = %54, %41
  call void @llvm.lifetime.end.p0(i64 4, ptr %14) #11
  br label %56

56:                                               ; preds = %55, %30
  call void @_ZN6icu_7720CheckedArrayByteSinkD1Ev(ptr noundef nonnull align 8 dereferenceable(29) %10) #11
  call void @llvm.lifetime.end.p0(i64 32, ptr %10) #11
  br label %58

57:                                               ; preds = %44, %31
  call void @_ZN6icu_7720CheckedArrayByteSinkD1Ev(ptr noundef nonnull align 8 dereferenceable(29) %10) #11
  call void @llvm.lifetime.end.p0(i64 32, ptr %10) #11
  br label %60

58:                                               ; preds = %56, %19
  %59 = load i32, ptr %5, align 4
  ret i32 %59

60:                                               ; preds = %57
  %61 = load ptr, ptr %11, align 8
  %62 = load i32, ptr %12, align 4
  %63 = insertvalue { ptr, i32 } poison, ptr %61, 0
  %64 = insertvalue { ptr, i32 } %63, i32 %62, 1
  resume { ptr, i32 } %64
}

; Function Attrs: inlinehint mustprogress nounwind uwtable
define internal noundef signext i8 @_ZL9U_FAILURE10UErrorCode(i32 noundef %0) #2 {
  %2 = alloca i32, align 4
  store i32 %0, ptr %2, align 4, !tbaa !15
  %3 = load i32, ptr %2, align 4, !tbaa !15
  %4 = icmp sgt i32 %3, 0
  %5 = zext i1 %4 to i8
  ret i8 %5
}

; Function Attrs: mustprogress uwtable
define i32 @ulocbld_buildLanguageTag_77(ptr noundef %0, ptr noundef %1, i32 noundef %2, ptr noundef %3) #1 personality ptr @__gxx_personality_v0 {
  %5 = alloca i32, align 4
  %6 = alloca ptr, align 8
  %7 = alloca ptr, align 8
  %8 = alloca i32, align 4
  %9 = alloca ptr, align 8
  %10 = alloca %"class.icu_77::Locale", align 8
  %11 = alloca %class.anon, align 8
  %12 = alloca ptr, align 8
  %13 = alloca i32, align 4
  store ptr %0, ptr %6, align 8, !tbaa !23
  store ptr %1, ptr %7, align 8, !tbaa !17
  store i32 %2, ptr %8, align 4, !tbaa !14
  store ptr %3, ptr %9, align 8, !tbaa !22
  %14 = load ptr, ptr %9, align 8, !tbaa !22
  %15 = load i32, ptr %14, align 4, !tbaa !15
  %16 = call noundef signext i8 @_ZL9U_FAILURE10UErrorCode(i32 noundef %15)
  %17 = icmp ne i8 %16, 0
  br i1 %17, label %18, label %19

18:                                               ; preds = %4
  store i32 0, ptr %5, align 4
  br label %37

19:                                               ; preds = %4
  %20 = load ptr, ptr %6, align 8, !tbaa !23
  %21 = icmp eq ptr %20, null
  br i1 %21, label %22, label %24

22:                                               ; preds = %19
  %23 = load ptr, ptr %9, align 8, !tbaa !22
  store i32 1, ptr %23, align 4, !tbaa !15
  store i32 0, ptr %5, align 4
  br label %37

24:                                               ; preds = %19
  call void @llvm.lifetime.start.p0(i64 224, ptr %10) #11
  %25 = load ptr, ptr %6, align 8, !tbaa !23
  %26 = load ptr, ptr %9, align 8, !tbaa !22
  call void @_ZN6icu_7713LocaleBuilder5buildER10UErrorCode(ptr dead_on_unwind writable sret(%"class.icu_77::Locale") align 8 %10, ptr noundef nonnull align 8 dereferenceable(48) %25, ptr noundef nonnull align 4 dereferenceable(4) %26)
  %27 = load ptr, ptr %7, align 8, !tbaa !17
  %28 = load i32, ptr %8, align 4, !tbaa !14
  call void @llvm.lifetime.start.p0(i64 8, ptr %11) #11
  %29 = getelementptr inbounds nuw %class.anon, ptr %11, i32 0, i32 0
  store ptr %10, ptr %29, align 8, !tbaa !35
  %30 = load ptr, ptr %9, align 8, !tbaa !22
  %31 = invoke noundef i32 @"_ZN6icu_7712ByteSinkUtil28viaByteSinkToTerminatedCharsIZ27ulocbld_buildLanguageTag_77E3$_0vEEiPciOT_R10UErrorCode"(ptr noundef %27, i32 noundef %28, ptr noundef nonnull align 8 dereferenceable(8) %11, ptr noundef nonnull align 4 dereferenceable(4) %30)
          to label %32 unwind label %33

32:                                               ; preds = %24
  store i32 %31, ptr %5, align 4
  call void @llvm.lifetime.end.p0(i64 8, ptr %11) #11
  call void @_ZN6icu_776LocaleD1Ev(ptr noundef nonnull align 8 dereferenceable(217) %10) #11
  call void @llvm.lifetime.end.p0(i64 224, ptr %10) #11
  br label %37

33:                                               ; preds = %24
  %34 = landingpad { ptr, i32 }
          cleanup
  %35 = extractvalue { ptr, i32 } %34, 0
  store ptr %35, ptr %12, align 8
  %36 = extractvalue { ptr, i32 } %34, 1
  store i32 %36, ptr %13, align 4
  call void @llvm.lifetime.end.p0(i64 8, ptr %11) #11
  call void @_ZN6icu_776LocaleD1Ev(ptr noundef nonnull align 8 dereferenceable(217) %10) #11
  call void @llvm.lifetime.end.p0(i64 224, ptr %10) #11
  br label %39

37:                                               ; preds = %32, %22, %18
  %38 = load i32, ptr %5, align 4
  ret i32 %38

39:                                               ; preds = %33
  %40 = load ptr, ptr %12, align 8
  %41 = load i32, ptr %13, align 4
  %42 = insertvalue { ptr, i32 } poison, ptr %40, 0
  %43 = insertvalue { ptr, i32 } %42, i32 %41, 1
  resume { ptr, i32 } %43
}