; Function Attrs: mustprogress uwtable
define i32 @ulocbld_buildLanguageTag_77(ptr noundef %0, ptr noundef %1, i32 noundef %2, ptr noundef %3) local_unnamed_addr #1 personality ptr @__gxx_personality_v0 {
  %5 = alloca %"class.icu_77::CheckedArrayByteSink", align 8
  %6 = alloca %"class.icu_77::Locale", align 8
  %7 = load i32, ptr %3, align 4, !tbaa !13
  %8 = icmp slt i32 %7, 1
  br i1 %8, label %9, label %34

9:                                                ; preds = %4
  %10 = icmp eq ptr %0, null
  br i1 %10, label %11, label %12

11:                                               ; preds = %9
  store i32 1, ptr %3, align 4, !tbaa !13
  br label %34

12:                                               ; preds = %9
  call void @llvm.lifetime.start.p0(i64 224, ptr nonnull %6) #13
  call void @_ZN6icu_7713LocaleBuilder5buildER10UErrorCode(ptr dead_on_unwind nonnull writable sret(%"class.icu_77::Locale") align 8 %6, ptr noundef nonnull align 8 dereferenceable(48) %0, ptr noundef nonnull align 4 dereferenceable(4) %3)
  %13 = load i32, ptr %3, align 4, !tbaa !13
  %14 = icmp slt i32 %13, 1
  br i1 %14, label %15, label %"_ZN6icu_7712ByteSinkUtil28viaByteSinkToTerminatedCharsIZ27ulocbld_buildLanguageTag_77E3$_0vEEiPciOT_R10UErrorCode.exit"

15:                                               ; preds = %12
  call void @llvm.lifetime.start.p0(i64 32, ptr nonnull %5) #13
  invoke void @_ZN6icu_7720CheckedArrayByteSinkC1EPci(ptr noundef nonnull align 8 dereferenceable(29) %5, ptr noundef %1, i32 noundef %2)
          to label %.noexc unwind label %32

.noexc:                                           ; preds = %15
  invoke void @_ZNK6icu_776Locale13toLanguageTagERNS_8ByteSinkER10UErrorCode(ptr noundef nonnull align 8 dereferenceable(217) %6, ptr noundef nonnull align 8 dereferenceable(8) %5, ptr noundef nonnull align 4 dereferenceable(4) %3)
          to label %"_ZZ27ulocbld_buildLanguageTag_77ENK3$_0clERN6icu_778ByteSinkER10UErrorCode.exit.i" unwind label %18

"_ZZ27ulocbld_buildLanguageTag_77ENK3$_0clERN6icu_778ByteSinkER10UErrorCode.exit.i": ; preds = %.noexc
  %16 = load i32, ptr %3, align 4, !tbaa !13
  %17 = icmp slt i32 %16, 1
  br i1 %17, label %20, label %30

18:                                               ; preds = %.noexc
  %19 = landingpad { ptr, i32 }
          cleanup
  br label %31

20:                                               ; preds = %"_ZZ27ulocbld_buildLanguageTag_77ENK3$_0clERN6icu_778ByteSinkER10UErrorCode.exit.i"
  %21 = getelementptr inbounds nuw i8, ptr %5, i64 24
  %22 = load i32, ptr %21, align 8, !tbaa !24
  %23 = getelementptr inbounds nuw i8, ptr %5, i64 28
  %24 = load i8, ptr %23, align 4, !tbaa !27
  %.not17.i = icmp eq i8 %24, 0
  br i1 %.not17.i, label %28, label %25

25:                                               ; preds = %20
  store i32 15, ptr %3, align 4, !tbaa !13
  br label %30

26:                                               ; preds = %28
  %27 = landingpad { ptr, i32 }
          cleanup
  br label %31

28:                                               ; preds = %20
  %29 = invoke i32 @u_terminateChars_77(ptr noundef %1, i32 noundef %2, i32 noundef %22, ptr noundef nonnull align 4 dereferenceable(4) %3)
          to label %30 unwind label %26

30:                                               ; preds = %28, %25, %"_ZZ27ulocbld_buildLanguageTag_77ENK3$_0clERN6icu_778ByteSinkER10UErrorCode.exit.i"
  %.1.i = phi i32 [ 0, %"_ZZ27ulocbld_buildLanguageTag_77ENK3$_0clERN6icu_778ByteSinkER10UErrorCode.exit.i" ], [ %22, %25 ], [ %29, %28 ]
  call void @_ZN6icu_7720CheckedArrayByteSinkD1Ev(ptr noundef nonnull align 8 dereferenceable(29) %5) #13
  call void @llvm.lifetime.end.p0(i64 32, ptr nonnull %5) #13
  br label %"_ZN6icu_7712ByteSinkUtil28viaByteSinkToTerminatedCharsIZ27ulocbld_buildLanguageTag_77E3$_0vEEiPciOT_R10UErrorCode.exit"

31:                                               ; preds = %26, %18
  %.pn.i = phi { ptr, i32 } [ %27, %26 ], [ %19, %18 ]
  call void @_ZN6icu_7720CheckedArrayByteSinkD1Ev(ptr noundef nonnull align 8 dereferenceable(29) %5) #13
  call void @llvm.lifetime.end.p0(i64 32, ptr nonnull %5) #13
  br label %.body

"_ZN6icu_7712ByteSinkUtil28viaByteSinkToTerminatedCharsIZ27ulocbld_buildLanguageTag_77E3$_0vEEiPciOT_R10UErrorCode.exit": ; preds = %30, %12
  %.0.i = phi i32 [ %.1.i, %30 ], [ 0, %12 ]
  call void @_ZN6icu_776LocaleD1Ev(ptr noundef nonnull align 8 dereferenceable(217) %6) #13
  call void @llvm.lifetime.end.p0(i64 224, ptr nonnull %6) #13
  br label %34

32:                                               ; preds = %15
  %33 = landingpad { ptr, i32 }
          cleanup
  br label %.body

.body:                                            ; preds = %31, %32
  %eh.lpad-body = phi { ptr, i32 } [ %33, %32 ], [ %.pn.i, %31 ]
  call void @_ZN6icu_776LocaleD1Ev(ptr noundef nonnull align 8 dereferenceable(217) %6) #13
  call void @llvm.lifetime.end.p0(i64 224, ptr nonnull %6) #13
  resume { ptr, i32 } %eh.lpad-body

34:                                               ; preds = %4, %"_ZN6icu_7712ByteSinkUtil28viaByteSinkToTerminatedCharsIZ27ulocbld_buildLanguageTag_77E3$_0vEEiPciOT_R10UErrorCode.exit", %11
  %.0 = phi i32 [ 0, %11 ], [ %.0.i, %"_ZN6icu_7712ByteSinkUtil28viaByteSinkToTerminatedCharsIZ27ulocbld_buildLanguageTag_77E3$_0vEEiPciOT_R10UErrorCode.exit" ], [ 0, %4 ]
  ret i32 %.0
}